; ModuleID = '55/17.c'
source_filename = "55/17.c"
target datalayout = "e-m:e-p270:32:32-p271:32:32-p272:64:64-i64:64-f80:128-n8:16:32:64-S128"
target triple = "x86_64-pc-linux-gnu"

@__const.main.chart = private unnamed_addr constant [37 x i8] c"0123456789ABCDEFGHIJKLMNOPQRSTUVWXYZ\00", align 16
@.str = private unnamed_addr constant [9 x i8] c"%d %s %d\00", align 1
@.str.1 = private unnamed_addr constant [3 x i8] c"%s\00", align 1

; Function Attrs: noinline nounwind uwtable
define dso_local void @up(i8* %0) #0 {
  %2 = alloca i8*, align 8
  store i8* %0, i8** %2, align 8
  br label %3

3:                                                ; preds = %23, %1
  %4 = load i8*, i8** %2, align 8
  %5 = load i8, i8* %4, align 1
  %6 = icmp ne i8 %5, 0
  br i1 %6, label %7, label %26

7:                                                ; preds = %3
  %8 = load i8*, i8** %2, align 8
  %9 = load i8, i8* %8, align 1
  %10 = sext i8 %9 to i32
  %11 = icmp sge i32 %10, 97
  br i1 %11, label %12, label %23

12:                                               ; preds = %7
  %13 = load i8*, i8** %2, align 8
  %14 = load i8, i8* %13, align 1
  %15 = sext i8 %14 to i32
  %16 = icmp sle i32 %15, 122
  br i1 %16, label %17, label %23

17:                                               ; preds = %12
  %18 = load i8*, i8** %2, align 8
  %19 = load i8, i8* %18, align 1
  %20 = sext i8 %19 to i32
  %21 = sub nsw i32 %20, 32
  %22 = trunc i32 %21 to i8
  store i8 %22, i8* %18, align 1
  br label %23

23:                                               ; preds = %17, %12, %7
  %24 = load i8*, i8** %2, align 8
  %25 = getelementptr inbounds i8, i8* %24, i32 1
  store i8* %25, i8** %2, align 8
  br label %3

26:                                               ; preds = %3
  ret void
}

; Function Attrs: noinline nounwind uwtable
define dso_local i32 @main() #0 {
  %1 = alloca i32, align 4
  %2 = alloca [37 x i8], align 16
  %3 = alloca i32, align 4
  %4 = alloca i32, align 4
  %5 = alloca i32, align 4
  %6 = alloca i64, align 8
  %7 = alloca [100 x i8], align 16
  %8 = alloca [100 x i8], align 16
  %9 = alloca i8*, align 8
  store i32 0, i32* %1, align 4
  %10 = bitcast [37 x i8]* %2 to i8*
  call void @llvm.memcpy.p0i8.p0i8.i64(i8* align 16 %10, i8* align 16 getelementptr inbounds ([37 x i8], [37 x i8]* @__const.main.chart, i32 0, i32 0), i64 37, i1 false)
  store i32 0, i32* %3, align 4
  store i32 0, i32* %4, align 4
  store i64 0, i64* %6, align 8
  %11 = getelementptr inbounds [100 x i8], [100 x i8]* %7, i64 0, i64 0
  %12 = call i32 (i8*, ...) @__isoc99_scanf(i8* getelementptr inbounds ([9 x i8], [9 x i8]* @.str, i64 0, i64 0), i32* %3, i8* %11, i32* %4)
  %13 = getelementptr inbounds [100 x i8], [100 x i8]* %7, i64 0, i64 0
  call void @up(i8* %13)
  store i32 0, i32* %5, align 4
  br label %14

14:                                               ; preds = %53, %0
  %15 = load i32, i32* %5, align 4
  %16 = sext i32 %15 to i64
  %17 = getelementptr inbounds [100 x i8], [100 x i8]* %7, i64 0, i64 %16
  %18 = load i8, i8* %17, align 1
  %19 = icmp ne i8 %18, 0
  br i1 %19, label %20, label %56

20:                                               ; preds = %14
  %21 = load i32, i32* %5, align 4
  %22 = sext i32 %21 to i64
  %23 = getelementptr inbounds [100 x i8], [100 x i8]* %7, i64 0, i64 %22
  %24 = load i8, i8* %23, align 1
  %25 = sext i8 %24 to i32
  %26 = icmp sge i32 %25, 65
  br i1 %26, label %27, label %40

27:                                               ; preds = %20
  %28 = load i64, i64* %6, align 8
  %29 = load i32, i32* %3, align 4
  %30 = sext i32 %29 to i64
  %31 = mul nsw i64 %28, %30
  %32 = load i32, i32* %5, align 4
  %33 = sext i32 %32 to i64
  %34 = getelementptr inbounds [100 x i8], [100 x i8]* %7, i64 0, i64 %33
  %35 = load i8, i8* %34, align 1
  %36 = sext i8 %35 to i64
  %37 = add nsw i64 %31, %36
  %38 = sub nsw i64 %37, 65
  %39 = add nsw i64 %38, 10
  store i64 %39, i64* %6, align 8
  br label %52

40:                                               ; preds = %20
  %41 = load i64, i64* %6, align 8
  %42 = load i32, i32* %3, align 4
  %43 = sext i32 %42 to i64
  %44 = mul nsw i64 %41, %43
  %45 = load i32, i32* %5, align 4
  %46 = sext i32 %45 to i64
  %47 = getelementptr inbounds [100 x i8], [100 x i8]* %7, i64 0, i64 %46
  %48 = load i8, i8* %47, align 1
  %49 = sext i8 %48 to i64
  %50 = add nsw i64 %44, %49
  %51 = sub nsw i64 %50, 48
  store i64 %51, i64* %6, align 8
  br label %52

52:                                               ; preds = %40, %27
  br label %53

53:                                               ; preds = %52
  %54 = load i32, i32* %5, align 4
  %55 = add nsw i32 %54, 1
  store i32 %55, i32* %5, align 4
  br label %14

56:                                               ; preds = %14
  %57 = getelementptr inbounds [100 x i8], [100 x i8]* %8, i64 0, i64 99
  store i8 0, i8* %57, align 1
  %58 = getelementptr inbounds [100 x i8], [100 x i8]* %8, i64 0, i64 99
  store i8* %58, i8** %9, align 8
  br label %59

59:                                               ; preds = %73, %56
  %60 = load i8*, i8** %9, align 8
  %61 = getelementptr inbounds i8, i8* %60, i32 -1
  store i8* %61, i8** %9, align 8
  %62 = load i64, i64* %6, align 8
  %63 = load i32, i32* %4, align 4
  %64 = sext i32 %63 to i64
  %65 = srem i64 %62, %64
  %66 = getelementptr inbounds [37 x i8], [37 x i8]* %2, i64 0, i64 %65
  %67 = load i8, i8* %66, align 1
  %68 = load i8*, i8** %9, align 8
  store i8 %67, i8* %68, align 1
  %69 = load i32, i32* %4, align 4
  %70 = sext i32 %69 to i64
  %71 = load i64, i64* %6, align 8
  %72 = sdiv i64 %71, %70
  store i64 %72, i64* %6, align 8
  br label %73

73:                                               ; preds = %59
  %74 = load i64, i64* %6, align 8
  %75 = icmp ne i64 %74, 0
  br i1 %75, label %59, label %76

76:                                               ; preds = %73
  %77 = load i8*, i8** %9, align 8
  %78 = call i32 (i8*, ...) @printf(i8* getelementptr inbounds ([3 x i8], [3 x i8]* @.str.1, i64 0, i64 0), i8* %77)
  ret i32 0
}

; Function Attrs: argmemonly nounwind willreturn
declare void @llvm.memcpy.p0i8.p0i8.i64(i8* noalias nocapture writeonly, i8* noalias nocapture readonly, i64, i1 immarg) #1

declare dso_local i32 @__isoc99_scanf(i8*, ...) #2

declare dso_local i32 @printf(i8*, ...) #2


!llvm.module.flags = !{!0}
!llvm.ident = !{!1}

!0 = !{i32 1, !"wchar_size", i32 4}
!1 = !{!"clang version 10.0.0-4ubuntu1 "}
